; Function Attrs: mustprogress uwtable
define void @_Z16dd_move_x_vsitesRK12gmx_domdec_tPA3_KfN3gmx8ArrayRefINS5_11BasicVectorIfEEEE(ptr noundef nonnull align 8 dereferenceable(1072) %0, ptr noundef %1, ptr %2, ptr readnone captures(none) %3) local_unnamed_addr #0 {
  %5 = getelementptr inbounds nuw i8, ptr %0, i64 824
  %6 = load ptr, ptr %5, align 8, !tbaa !4
  %.not = icmp eq ptr %6, null
  br i1 %.not, label %8, label %7

7:                                                ; preds = %4
  tail call void @_Z16dd_move_x_specatPK12gmx_domdec_tP24gmx_domdec_specat_comm_tPA3_KfPN3gmx11BasicVectorIfEESA_b(ptr noundef nonnull %0, ptr noundef nonnull %6, ptr noundef %1, ptr noundef %2, ptr noundef null, i1 noundef zeroext false)
  br label %8

8:                                                ; preds = %7, %4
  ret void
}